target datalayout = "e-m:e-p270:32:32-p271:32:32-p272:64:64-i64:64-i128:128-f80:128-n8:16:32:64-S128"
target triple = "x86_64-pc-linux-gnu"

; Function Attrs: nounwind uwtable
define internal double @trc_bt1361(double noundef %0) #0 {
  %2 = alloca double, align 8
  %3 = alloca double, align 8
  %4 = alloca double, align 8
  store double %0, ptr %2, align 8, !tbaa !27
  call void @llvm.lifetime.start.p0(i64 8, ptr %3) #7
  store double 0x3FF196B844FBE3DC, ptr %3, align 8, !tbaa !27
  call void @llvm.lifetime.start.p0(i64 8, ptr %4) #7
  store double 0x3F927CBD51448945, ptr %4, align 8, !tbaa !27
  %5 = load double, ptr %2, align 8, !tbaa !27
  %6 = fcmp nsz oge double -4.500000e-03, %5
  br i1 %6, label %7, label %14

7:                                                ; preds = %1
  %8 = load double, ptr %2, align 8, !tbaa !27
  %9 = fmul nsz double -4.000000e+00, %8
  %10 = call nsz double @llvm.pow.f64(double %9, double 4.500000e-01)
  %11 = call nsz double @llvm.fmuladd.f64(double 0x3FF196B844FBE3DC, double %10, double 0x3FB96B844FBE3DC0)
  %12 = fneg nsz double %11
  %13 = fdiv nsz double %12, 4.000000e+00
  br label %26

14:                                               ; preds = %1
  %15 = load double, ptr %2, align 8, !tbaa !27
  %16 = fcmp nsz ogt double 0x3F927CBD51448945, %15
  br i1 %16, label %17, label %20

17:                                               ; preds = %14
  %18 = load double, ptr %2, align 8, !tbaa !27
  %19 = fmul nsz double 4.500000e+00, %18
  br label %24

20:                                               ; preds = %14
  %21 = load double, ptr %2, align 8, !tbaa !27
  %22 = call nsz double @llvm.pow.f64(double %21, double 4.500000e-01)
  %23 = call nsz double @llvm.fmuladd.f64(double 0x3FF196B844FBE3DC, double %22, double 0xBFB96B844FBE3DC0)
  br label %24

24:                                               ; preds = %20, %17
  %25 = phi nsz double [ %19, %17 ], [ %23, %20 ]
  br label %26

26:                                               ; preds = %24, %7
  %27 = phi nsz double [ %13, %7 ], [ %25, %24 ]
  call void @llvm.lifetime.end.p0(i64 8, ptr %4) #7
  call void @llvm.lifetime.end.p0(i64 8, ptr %3) #7
  ret double %27
}