; Function Attrs: mustprogress nofree norecurse nosync nounwind willreturn memory(none) uwtable
define internal noundef double @trc_bt1361(double noundef %0) #0 {
  %2 = fcmp nsz ugt double %0, -4.500000e-03
  br i1 %2, label %8, label %3

3:                                                ; preds = %1
  %4 = fmul nsz double %0, -4.000000e+00
  %5 = tail call nsz double @llvm.pow.f64(double %4, double 4.500000e-01)
  %6 = tail call nsz double @llvm.fmuladd.f64(double %5, double 0x3FF196B844FBE3DC, double 0x3FB96B844FBE3DC0)
  %7 = fmul nsz double %6, -2.500000e-01
  br label %15

8:                                                ; preds = %1
  %9 = fcmp nsz olt double %0, 0x3F927CBD51448945
  br i1 %9, label %10, label %12

10:                                               ; preds = %8
  %11 = fmul nsz double %0, 4.500000e+00
  br label %15

12:                                               ; preds = %8
  %13 = tail call nsz double @llvm.pow.f64(double %0, double 4.500000e-01)
  %14 = tail call nsz double @llvm.fmuladd.f64(double %13, double 0x3FF196B844FBE3DC, double 0xBFB96B844FBE3DC0)
  br label %15

15:                                               ; preds = %10, %12, %3
  %16 = phi nsz double [ %7, %3 ], [ %11, %10 ], [ %14, %12 ]
  ret double %16
}